Certificate:
    Data:
        Version: 3 (0x2)
        Serial Number: 5 (0x5)
        Signature Algorithm: md5WithRSAEncryption
        Issuer: C=HU, ST=Budapest, L=Budapest, O=CA1, OU=CA1, CN=www.ca1.com
        Validity
            Not Before: Jun 19 10:29:23 2013 GMT
            Not After : Mar 15 10:29:23 2016 GMT
        Subject: C=HU, ST=Budapest, O=Service1, OU=Service1, CN=www.service1.com
        Subject Public Key Info:
            Public Key Algorithm: rsaEncryption
                Public-Key: (2048 bit)
                Modulus:
                    00:aa:49:a5:06:bd:99:6a:21:3a:7c:97:e1:d5:48:
                    eb:c8:18:a9:93:7e:c5:c1:02:16:0b:51:af:8c:93:
                    5b:a0:48:af:36:f6:d1:fe:00:17:b2:9f:9d:4c:ae:
                    94:e2:74:8f:40:2b:3b:63:3e:91:17:dd:1c:ab:1e:
                    47:1b:a4:b7:1e:29:40:b0:83:8f:25:60:54:1e:bd:
                    2a:65:6e:91:b3:c1:ae:ec:b3:e1:31:61:b0:59:c2:
                    0c:57:ce:6c:d8:ec:4a:83:59:7d:d9:8d:a7:51:09:
                    ea:f5:03:fe:53:63:e6:98:ee:4d:8b:c9:a5:66:3d:
                    bb:c6:e0:e0:81:eb:49:79:55:1c:79:fa:6d:b3:af:
                    29:79:d6:bb:3f:e2:6c:0b:83:5e:4c:d3:7d:11:e9:
                    bb:63:b8:12:c7:91:00:04:23:64:d5:1b:6a:5f:e1:
                    fa:0d:82:d2:3c:c7:94:62:e5:24:fc:c3:73:ad:d4:
                    cd:52:a1:f8:30:44:28:0b:36:94:fa:7e:0e:9d:4f:
                    6f:b0:29:77:e8:77:b5:e9:b5:1a:10:74:fd:9e:5f:
                    83:5b:da:ff:53:83:e5:07:99:15:0a:88:3a:e8:90:
                    69:5e:e4:57:fb:35:75:a7:4d:cb:65:b1:63:61:f2:
                    c7:e6:15:31:f9:39:91:1a:b4:9f:8c:c5:68:97:0b:
                    ea:bd
                Exponent: 65537 (0x10001)
    Signature Algorithm: md5WithRSAEncryption
        28:3d:58:a5:f9:92:a4:ff:2f:04:9d:7c:92:07:27:6c:4e:af:
        0b:d6:a8:e1:01:db:f1:85:9c:33:57:95:1e:29:b1:56:5e:54:
        c4:f1:21:47:0b:87:ce:00:5d:d4:26:6a:b2:bf:1b:49:92:a8:
        2f:b6:b3:1d:35:0d:b1:9a:b7:35:72:d9:cb:1a:38:84:ba:6f:
        9f:21:d8:ec:24:4a:f0:22:f1:61:3d:03:6e:58:a3:ae:98:f3:
        31:4d:2c:58:c3:32:43:bd:07:92:b4:28:a9:f5:57:07:87:10:
        f1:e2:cf:15:4d:50:7c:8c:05:b4:b5:71:fb:ea:55:b1:da:5b:
        8e:64
-----BEGIN CERTIFICATE-----
MIICvjCCAiegAwIBAgIBBTANBgkqhkiG9w0BAQQFADBlMQswCQYDVQQGEwJIVTER
MA8GA1UECBMIQnVkYXBlc3QxETAPBgNVBAcTCEJ1ZGFwZXN0MQwwCgYDVQQKEwND
QTExDDAKBgNVBAsTA0NBMTEUMBIGA1UEAxMLd3d3LmNhMS5jb20wHhcNMTMwNjE5
MTAyOTIzWhcNMTYwMzE1MTAyOTIzWjBhMQswCQYDVQQGEwJIVTERMA8GA1UECBMI
QnVkYXBlc3QxETAPBgNVBAoTCFNlcnZpY2UxMREwDwYDVQQLEwhTZXJ2aWNlMTEZ
MBcGA1UEAxMQd3d3LnNlcnZpY2UxLmNvbTCCASIwDQYJKoZIhvcNAQEBBQADggEP
ADCCAQoCggEBAKpJpQa9mWohOnyX4dVI68gYqZN+xcECFgtRr4yTW6BIrzb20f4A
F7KfnUyulOJ0j0ArO2M+kRfdHKseRxuktx4pQLCDjyVgVB69KmVukbPBruyz4TFh
sFnCDFfObNjsSoNZfdmNp1EJ6vUD/lNj5pjuTYvJpWY9u8bg4IHrSXlVHHn6bbOv
KXnWuz/ibAuDXkzTfRHpu2O4EseRAAQjZNUbal/h+g2C0jzHlGLlJPzDc63UzVKh
+DBEKAs2lPp+Dp1Pb7Apd+h3tem1GhB0/Z5fg1va/1OD5QeZFQqIOuiQaV7kV/s1
dadNy2WxY2Hyx+YVMfk5kRq0n4zFaJcL6r0CAwEAATANBgkqhkiG9w0BAQQFAAOB
gQAoPVil+ZKk/y8EnXySBydsTq8L1qjhAdvxhZwzV5UeKbFWXlTE8SFHC4fOAF3U
JmqyvxtJkqgvtrMdNQ2xmrc1ctnLGjiEum+fIdjsJErwIvFhPQNuWKOumPMxTSxY
wzJDvQeStCip9VcHhxDx4s8VTVB8jAW0tXH76lWx2luOZA==
-----END CERTIFICATE-----
-----BEGIN CERTIFICATE-----
MIICQTCCAaoCCQChB5BbB+wXojANBgkqhkiG9w0BAQUFADBlMQswCQYDVQQGEwJI
VTERMA8GA1UECBMIQnVkYXBlc3QxETAPBgNVBAcTCEJ1ZGFwZXN0MQwwCgYDVQQK
EwNDQTExDDAKBgNVBAsTA0NBMTEUMBIGA1UEAxMLd3d3LmNhMS5jb20wHhcNMTMw
NjEwMTMxMDI5WhcNMTYwMzA3MTMxMDI5WjBlMQswCQYDVQQGEwJIVTERMA8GA1UE
CBMIQnVkYXBlc3QxETAPBgNVBAcTCEJ1ZGFwZXN0MQwwCgYDVQQKEwNDQTExDDAK
BgNVBAsTA0NBMTEUMBIGA1UEAxMLd3d3LmNhMS5jb20wgZ8wDQYJKoZIhvcNAQEB
BQADgY0AMIGJAoGBAN2DiW5KJDjtTbvyv+r63gkOPzz0LpuiId8X0k1fROsWPeHv
leOyq/XuVcnfHNZnOHuYjxPjYdAEq4vQ+yOBB6d0kpTRDnw+XZXkU9dwZhPC+G92
E/6Ao+uRUU6mGj5LfNlSoGBYyKOBTPL4wWJTDwgKGNn57yTwh+vef2E0L4VTAgMB
AAEwDQYJKoZIhvcNAQEFBQADgYEAEIAWJBnubwFcywXc8FJx4WpsMEmMMs0s3Fe8
d+P0BhYZKSHxAu8hGr6+8aa5VsKgNvH3biALEcZMKMP/8AygDo1/lOsuzWHoliY7
7ymDUO2Mv0cWOxZk5O/wNI2opYRg8Nm+FXNrUyCXrFvXIJa0Nx+va0Ds1sdM8Wpu
RP/Na6M=
-----END CERTIFICATE-----
