Certificate:
    Data:
        Version: 3 (0x2)
        Serial Number: 1 (0x1)
        Signature Algorithm: md5WithRSAEncryption
        Issuer: C=HU, ST=Budapest, L=Budapest, O=CA1, OU=CA1, CN=www.ca1.com
        Validity
            Not Before: Jun 12 10:51:00 2013 GMT
            Not After : Mar  8 10:51:00 2016 GMT
        Subject: C=HU, ST=Budapest, O=Comm, OU=Comm, CN=www.comm.com
        Subject Public Key Info:
            Public Key Algorithm: rsaEncryption
                Public-Key: (2048 bit)
                Modulus:
                    00:b4:73:f7:9c:dd:61:31:b5:bb:ef:2d:ec:7e:78:
                    32:9f:99:84:e2:c4:3d:9a:a2:c2:79:41:d2:2f:5b:
                    d4:95:ff:3c:50:df:6c:a4:cc:4e:77:bd:a7:36:a2:
                    6d:4a:b1:3a:dd:48:d6:db:90:a1:40:a1:8f:d4:2f:
                    77:28:e4:2b:24:e6:12:ff:57:e7:c8:5b:29:fc:a9:
                    44:c8:64:9e:66:6a:2f:e9:a2:e2:07:1b:24:66:ed:
                    3e:8b:f2:31:c3:19:29:6e:47:4b:fe:7f:fc:41:d3:
                    5d:57:0d:83:68:a5:4d:84:38:04:c5:f4:6a:bf:8f:
                    eb:cd:d7:6e:ad:02:63:8a:45:ac:2f:fa:4f:7a:04:
                    cc:81:4a:86:4b:89:cd:f1:34:66:b9:9b:b5:12:4f:
                    aa:bb:38:90:1e:24:bf:2a:38:f0:47:6c:7f:ce:e7:
                    48:0b:66:bb:c2:3e:2a:90:ed:bc:98:81:43:67:8e:
                    fe:ac:5c:68:00:0b:ab:92:a5:c4:2b:e7:67:81:e4:
                    8c:fa:16:17:08:96:94:25:a9:84:fb:5b:68:29:4e:
                    ca:9f:0a:44:47:d2:fa:a9:a5:ea:a4:2f:e5:72:e0:
                    28:2f:44:9a:1f:c5:d4:d5:44:7b:17:75:fc:10:3e:
                    b2:bf:32:22:62:6a:a3:a1:f0:30:f6:26:cd:2f:dd:
                    d8:03
                Exponent: 65537 (0x10001)
    Signature Algorithm: md5WithRSAEncryption
        d4:9a:52:4f:b4:65:8a:c6:7f:e6:9c:97:c4:fd:cb:27:fa:09:
        6b:cb:a6:ac:95:7e:59:da:09:7b:fb:53:f3:cf:fd:fc:f7:19:
        1c:ac:6b:57:63:ed:04:a5:84:9c:14:6a:6c:86:8e:1f:16:ba:
        df:89:4d:c9:aa:b0:75:af:71:13:62:07:f5:10:1f:6d:e5:7a:
        77:f6:d3:8f:87:0a:30:ba:7b:16:5c:c3:da:75:f5:8d:15:45:
        dc:ce:91:0b:de:34:01:9e:5f:5f:de:4e:89:a6:d9:f5:16:4d:
        bb:02:d5:b4:c3:f5:87:f6:e4:4a:86:95:11:5d:f5:10:ec:b2:
        43:1e
-----BEGIN CERTIFICATE-----
MIICsjCCAhugAwIBAgIBATANBgkqhkiG9w0BAQQFADBlMQswCQYDVQQGEwJIVTER
MA8GA1UECBMIQnVkYXBlc3QxETAPBgNVBAcTCEJ1ZGFwZXN0MQwwCgYDVQQKEwND
QTExDDAKBgNVBAsTA0NBMTEUMBIGA1UEAxMLd3d3LmNhMS5jb20wHhcNMTMwNjEy
MTA1MTAwWhcNMTYwMzA4MTA1MTAwWjBVMQswCQYDVQQGEwJIVTERMA8GA1UECBMI
QnVkYXBlc3QxDTALBgNVBAoTBENvbW0xDTALBgNVBAsTBENvbW0xFTATBgNVBAMT
DHd3dy5jb21tLmNvbTCCASIwDQYJKoZIhvcNAQEBBQADggEPADCCAQoCggEBALRz
95zdYTG1u+8t7H54Mp+ZhOLEPZqiwnlB0i9b1JX/PFDfbKTMTne9pzaibUqxOt1I
1tuQoUChj9QvdyjkKyTmEv9X58hbKfypRMhknmZqL+mi4gcbJGbtPovyMcMZKW5H
S/5//EHTXVcNg2ilTYQ4BMX0ar+P683Xbq0CY4pFrC/6T3oEzIFKhkuJzfE0Zrmb
tRJPqrs4kB4kvyo48Edsf87nSAtmu8I+KpDtvJiBQ2eO/qxcaAALq5KlxCvnZ4Hk
jPoWFwiWlCWphPtbaClOyp8KREfS+qml6qQv5XLgKC9Emh/F1NVEexd1/BA+sr8y
ImJqo6HwMPYmzS/d2AMCAwEAATANBgkqhkiG9w0BAQQFAAOBgQDUmlJPtGWKxn/m
nJfE/csn+glry6aslX5Z2gl7+1Pzz/389xkcrGtXY+0EpYScFGpsho4fFrrfiU3J
qrB1r3ETYgf1EB9t5Xp39tOPhwowunsWXMPadfWNFUXczpEL3jQBnl9f3k6Jptn1
Fk27AtW0w/WH9uRKhpURXfUQ7LJDHg==
-----END CERTIFICATE-----
