Certificate:
    Data:
        Version: 3 (0x2)
        Serial Number: 2 (0x2)
        Signature Algorithm: md5WithRSAEncryption
        Issuer: C=HU, ST=Budapest, L=Budapest, O=CA1, OU=CA1, CN=www.ca1.com
        Validity
            Not Before: Jun 12 11:00:09 2013 GMT
            Not After : Mar  8 11:00:09 2016 GMT
        Subject: C=HU, ST=Budapest, O=Service1, OU=Service1, CN=www.service1.com
        Subject Public Key Info:
            Public Key Algorithm: rsaEncryption
                Public-Key: (2048 bit)
                Modulus:
                    00:82:da:02:e7:a7:35:82:4b:38:ef:24:3a:44:7a:
                    6a:dc:ae:d4:6a:35:fb:fe:a7:00:fe:9f:14:68:c9:
                    aa:69:67:c7:50:1d:6e:4b:9d:8c:27:3c:72:7e:0b:
                    6b:0e:2f:80:8d:99:2f:bc:a2:ac:eb:d8:f7:73:e3:
                    36:fe:d0:b1:17:b5:08:4b:f7:1a:20:e1:d2:68:6f:
                    2b:b8:f9:1a:a4:01:ca:87:e8:fa:f8:da:39:a6:e9:
                    b0:6d:79:a4:28:d6:85:aa:f5:29:04:85:b0:03:08:
                    11:23:48:e1:5f:3b:8d:59:58:4e:93:da:7b:fa:da:
                    78:ea:8a:97:b9:30:57:69:df:3f:51:22:78:62:36:
                    37:62:24:f1:47:03:d5:6a:5c:63:18:76:ab:c9:0c:
                    49:e8:c9:6d:a9:c1:ce:7e:4e:82:19:02:00:0d:e3:
                    9d:da:12:cc:96:4e:89:76:fe:b4:96:7f:cc:d9:10:
                    a6:cb:b2:48:13:08:c1:23:4d:f9:8c:43:08:2c:24:
                    49:59:2d:28:7e:54:05:e1:9b:ad:ac:c7:20:28:1a:
                    4a:91:c6:f6:6e:67:65:a9:44:31:c3:34:08:ad:c6:
                    66:02:18:a4:0c:79:0b:a4:9e:4d:cf:a6:ca:f0:18:
                    7c:fe:38:0e:8b:be:b3:e5:9c:72:28:3b:1b:9c:3b:
                    6a:bd
                Exponent: 65537 (0x10001)
    Signature Algorithm: md5WithRSAEncryption
        15:bc:b2:e8:60:7f:75:73:62:8b:9d:42:ef:15:bc:7e:91:da:
        4d:c5:45:c8:1b:e5:26:1d:6e:bb:b0:8f:e9:72:fa:04:bb:7c:
        1d:8c:8a:22:d2:54:77:32:a7:c5:eb:b3:95:8b:fe:c9:53:ee:
        2a:2c:95:d0:b7:7b:3f:e0:5d:24:a3:fb:5a:8e:54:3c:e3:d2:
        f7:a2:b3:1f:a5:46:b0:67:02:8d:44:91:b3:9f:97:68:be:b5:
        7b:99:d0:99:65:55:1c:2d:a6:9e:4f:e9:5f:a5:79:9b:9e:56:
        74:dc:fb:02:9a:8c:6e:fd:40:b8:c5:a4:1c:11:2f:2f:8c:70:
        38:25
-----BEGIN CERTIFICATE-----
MIICvjCCAiegAwIBAgIBAjANBgkqhkiG9w0BAQQFADBlMQswCQYDVQQGEwJIVTER
MA8GA1UECBMIQnVkYXBlc3QxETAPBgNVBAcTCEJ1ZGFwZXN0MQwwCgYDVQQKEwND
QTExDDAKBgNVBAsTA0NBMTEUMBIGA1UEAxMLd3d3LmNhMS5jb20wHhcNMTMwNjEy
MTEwMDA5WhcNMTYwMzA4MTEwMDA5WjBhMQswCQYDVQQGEwJIVTERMA8GA1UECBMI
QnVkYXBlc3QxETAPBgNVBAoTCFNlcnZpY2UxMREwDwYDVQQLEwhTZXJ2aWNlMTEZ
MBcGA1UEAxMQd3d3LnNlcnZpY2UxLmNvbTCCASIwDQYJKoZIhvcNAQEBBQADggEP
ADCCAQoCggEBAILaAuenNYJLOO8kOkR6atyu1Go1+/6nAP6fFGjJqmlnx1Adbkud
jCc8cn4Law4vgI2ZL7yirOvY93PjNv7QsRe1CEv3GiDh0mhvK7j5GqQByofo+vja
OabpsG15pCjWhar1KQSFsAMIESNI4V87jVlYTpPae/raeOqKl7kwV2nfP1EieGI2
N2Ik8UcD1WpcYxh2q8kMSejJbanBzn5OghkCAA3jndoSzJZOiXb+tJZ/zNkQpsuy
SBMIwSNN+YxDCCwkSVktKH5UBeGbrazHICgaSpHG9m5nZalEMcM0CK3GZgIYpAx5
C6SeTc+myvAYfP44Dou+s+Wccig7G5w7ar0CAwEAATANBgkqhkiG9w0BAQQFAAOB
gQAVvLLoYH91c2KLnULvFbx+kdpNxUXIG+UmHW67sI/pcvoEu3wdjIoi0lR3MqfF
67OVi/7JU+4qLJXQt3s/4F0ko/tajlQ849L3orMfpUawZwKNRJGzn5dovrV7mdCZ
ZVUcLaaeT+lfpXmbnlZ03PsCmoxu/UC4xaQcES8vjHA4JQ==
-----END CERTIFICATE-----
