Certificate:
    Data:
        Version: 3 (0x2)
        Serial Number: 3 (0x3)
        Signature Algorithm: md5WithRSAEncryption
        Issuer: C=HU, ST=Budapest, L=Budapest, O=CA1, OU=CA1, CN=www.ca1.com
        Validity
            Not Before: Jun 10 22:01:03 2013 GMT
            Not After : Mar  6 22:01:03 2016 GMT
        Subject: C=HU, ST=Budapest, O=Comm, OU=Comm, CN=www.comm.com
        Subject Public Key Info:
            Public Key Algorithm: dsaEncryption
                pub: 
                    00:a9:3d:06:ac:60:e5:a6:3d:04:e0:8e:88:f9:90:
                    00:e1:e6:5b:a9:fe:e2:0f:11:0c:d4:e0:36:46:4d:
                    66:66:6d:d3:40:1e:2c:c2:43:d3:91:c1:9c:9f:08:
                    73:1a:de:41:8c:f0:9a:8f:09:3b:87:67:d2:4a:41:
                    be:f9:6f:06:cc:03:57:d8:aa:74:c8:b4:a9:75:65:
                    c3:93:71:43:36:32:81:08:67:5f:62:aa:ef:46:cf:
                    03:41:d2:4a:7c:de:1c:2f:a1:39:10:0c:7d:89:56:
                    4e:c3:df:00:9b:ef:1b:86:06:65:92:27:16:89:e7:
                    de:5d:8c:8c:31:d6:ed:5f:91
                P:   
                    00:fd:7f:53:81:1d:75:12:29:52:df:4a:9c:2e:ec:
                    e4:e7:f6:11:b7:52:3c:ef:44:00:c3:1e:3f:80:b6:
                    51:26:69:45:5d:40:22:51:fb:59:3d:8d:58:fa:bf:
                    c5:f5:ba:30:f6:cb:9b:55:6c:d7:81:3b:80:1d:34:
                    6f:f2:66:60:b7:6b:99:50:a5:a4:9f:9f:e8:04:7b:
                    10:22:c2:4f:bb:a9:d7:fe:b7:c6:1b:f8:3b:57:e7:
                    c6:a8:a6:15:0f:04:fb:83:f6:d3:c5:1e:c3:02:35:
                    54:13:5a:16:91:32:f6:75:f3:ae:2b:61:d7:2a:ef:
                    f2:22:03:19:9d:d1:48:01:c7
                Q:   
                    00:97:60:50:8f:15:23:0b:cc:b2:92:b9:82:a2:eb:
                    84:0b:f0:58:1c:f5
                G:   
                    00:f7:e1:a0:85:d6:9b:3d:de:cb:bc:ab:5c:36:b8:
                    57:b9:79:94:af:bb:fa:3a:ea:82:f9:57:4c:0b:3d:
                    07:82:67:51:59:57:8e:ba:d4:59:4f:e6:71:07:10:
                    81:80:b4:49:16:71:23:e8:4c:28:16:13:b7:cf:09:
                    32:8c:c8:a6:e1:3c:16:7a:8b:54:7c:8d:28:e0:a3:
                    ae:1e:2b:b3:a6:75:91:6e:a3:7f:0b:fa:21:35:62:
                    f1:fb:62:7a:01:24:3b:cc:a4:f1:be:a8:51:90:89:
                    a8:83:df:e1:5a:e5:9f:06:92:8b:66:5e:80:7b:55:
                    25:64:01:4c:3b:fe:cf:49:2a
    Signature Algorithm: md5WithRSAEncryption
        80:55:ea:dd:3a:03:6e:c3:b6:18:19:9e:f0:77:c0:b2:f6:e3:
        1d:6e:6d:7a:1d:a4:6b:c3:44:9b:f4:28:52:c1:35:08:80:8d:
        8b:36:af:29:d2:8d:f4:31:52:12:e3:1b:ea:7f:1e:3c:eb:92:
        c6:f2:1f:a8:73:d6:ad:6a:a3:2f:56:c3:0a:dc:4a:dd:be:9c:
        4f:58:73:5c:d5:38:a7:90:a1:0d:2d:94:94:b1:b0:e3:6b:78:
        d5:53:44:ba:bd:9f:25:63:50:1b:a4:45:c7:6e:f5:b4:f9:c7:
        eb:02:13:72:c7:b0:8c:16:25:8e:56:7d:f5:26:6d:22:ca:67:
        ba:63
-----BEGIN CERTIFICATE-----
MIIDSDCCArGgAwIBAgIBAzANBgkqhkiG9w0BAQQFADBlMQswCQYDVQQGEwJIVTER
MA8GA1UECBMIQnVkYXBlc3QxETAPBgNVBAcTCEJ1ZGFwZXN0MQwwCgYDVQQKEwND
QTExDDAKBgNVBAsTA0NBMTEUMBIGA1UEAxMLd3d3LmNhMS5jb20wHhcNMTMwNjEw
MjIwMTAzWhcNMTYwMzA2MjIwMTAzWjBVMQswCQYDVQQGEwJIVTERMA8GA1UECBMI
QnVkYXBlc3QxDTALBgNVBAoTBENvbW0xDTALBgNVBAsTBENvbW0xFTATBgNVBAMT
DHd3dy5jb21tLmNvbTCCAbgwggEsBgcqhkjOOAQBMIIBHwKBgQD9f1OBHXUSKVLf
Spwu7OTn9hG3UjzvRADDHj+AtlEmaUVdQCJR+1k9jVj6v8X1ujD2y5tVbNeBO4Ad
NG/yZmC3a5lQpaSfn+gEexAiwk+7qdf+t8Yb+DtX58aophUPBPuD9tPFHsMCNVQT
WhaRMvZ1864rYdcq7/IiAxmd0UgBxwIVAJdgUI8VIwvMspK5gqLrhAvwWBz1AoGB
APfhoIXWmz3ey7yrXDa4V7l5lK+7+jrqgvlXTAs9B4JnUVlXjrrUWU/mcQcQgYC0
SRZxI+hMKBYTt88JMozIpuE8FnqLVHyNKOCjrh4rs6Z1kW6jfwv6ITVi8ftiegEk
O8yk8b6oUZCJqIPf4VrlnwaSi2ZegHtVJWQBTDv+z0kqA4GFAAKBgQCpPQasYOWm
PQTgjoj5kADh5lup/uIPEQzU4DZGTWZmbdNAHizCQ9ORwZyfCHMa3kGM8JqPCTuH
Z9JKQb75bwbMA1fYqnTItKl1ZcOTcUM2MoEIZ19iqu9GzwNB0kp83hwvoTkQDH2J
Vk7D3wCb7xuGBmWSJxaJ595djIwx1u1fkTANBgkqhkiG9w0BAQQFAAOBgQCAVerd
OgNuw7YYGZ7wd8Cy9uMdbm16HaRrw0Sb9ChSwTUIgI2LNq8p0o30MVIS4xvqfx48
65LG8h+oc9ataqMvVsMK3ErdvpxPWHNc1TinkKENLZSUsbDja3jVU0S6vZ8lY1Ab
pEXHbvW0+cfrAhNyx7CMFiWOVn31Jm0iyme6Yw==
-----END CERTIFICATE-----
