Certificate:
    Data:
        Version: 3 (0x2)
        Serial Number: 6 (0x6)
    Signature Algorithm: md5WithRSAEncryption
        Issuer: C=HU, ST=Budapest, L=Budapest, O=CA1, OU=CA1, CN=www.ca1.com
        Validity
            Not Before: Jun 22 23:32:24 2013 GMT
            Not After : Mar 18 23:32:24 2016 GMT
        Subject: C=HU, ST=Budapest, O=Comm, OU=Comm, CN=www.comm.com
        Subject Public Key Info:
            Public Key Algorithm: rsaEncryption
                Public-Key: (1024 bit)
                Modulus:
                    00:86:b0:72:82:b6:76:62:e3:98:d9:48:f1:38:b2:
                    3d:03:74:04:1f:ed:20:5f:55:d1:db:ef:01:dc:50:
                    9d:20:95:37:0c:df:56:58:e8:e0:0f:f4:42:0c:48:
                    58:c4:a5:f7:4e:f9:c4:ee:34:f9:12:9b:9f:aa:2d:
                    95:d3:f8:13:9a:57:f6:6a:16:e6:ca:c2:e0:4c:72:
                    4e:c0:0c:4f:e9:3d:05:e2:69:57:38:ef:a8:2f:f3:
                    ce:ed:b0:6d:5c:71:e3:e9:b0:c7:78:be:89:19:2f:
                    27:8f:2f:60:ab:be:7d:90:3c:5d:e6:a1:2d:3c:9c:
                    e0:4c:33:3c:f1:19:89:12:39
                Exponent: 65537 (0x10001)
    Signature Algorithm: md5WithRSAEncryption
         ad:31:1b:21:cb:5b:09:fc:fa:9e:63:13:0c:90:1a:6d:f0:2a:
         fd:15:f4:9e:a0:9c:33:9c:81:26:e5:85:32:4b:c9:37:fd:f9:
         ac:ee:94:26:de:1f:6f:41:d5:f7:80:85:33:77:07:46:ce:f4:
         0d:e5:3a:ff:c6:83:59:4c:81:dc:08:f7:6d:71:e0:15:7b:89:
         02:d0:be:da:5d:23:8f:c7:cf:02:b2:ca:08:ee:8e:d1:1c:4b:
         18:b7:6f:c0:99:c4:78:47:f3:e3:8c:65:43:bf:b7:39:3e:74:
         04:12:a9:97:48:60:db:f3:86:e2:ba:82:39:0a:e1:72:c5:ed:
         88:f7
-----BEGIN CERTIFICATE-----
MIICLjCCAZegAwIBAgIBBjANBgkqhkiG9w0BAQQFADBlMQswCQYDVQQGEwJIVTER
MA8GA1UECBMIQnVkYXBlc3QxETAPBgNVBAcTCEJ1ZGFwZXN0MQwwCgYDVQQKEwND
QTExDDAKBgNVBAsTA0NBMTEUMBIGA1UEAxMLd3d3LmNhMS5jb20wHhcNMTMwNjIy
MjMzMjI0WhcNMTYwMzE4MjMzMjI0WjBVMQswCQYDVQQGEwJIVTERMA8GA1UECBMI
QnVkYXBlc3QxDTALBgNVBAoTBENvbW0xDTALBgNVBAsTBENvbW0xFTATBgNVBAMT
DHd3dy5jb21tLmNvbTCBnzANBgkqhkiG9w0BAQEFAAOBjQAwgYkCgYEAhrBygrZ2
YuOY2UjxOLI9A3QEH+0gX1XR2+8B3FCdIJU3DN9WWOjgD/RCDEhYxKX3TvnE7jT5
Epufqi2V0/gTmlf2ahbmysLgTHJOwAxP6T0F4mlXOO+oL/PO7bBtXHHj6bDHeL6J
GS8njy9gq759kDxd5qEtPJzgTDM88RmJEjkCAwEAATANBgkqhkiG9w0BAQQFAAOB
gQCtMRshy1sJ/PqeYxMMkBpt8Cr9FfSeoJwznIEm5YUyS8k3/fms7pQm3h9vQdX3
gIUzdwdGzvQN5Tr/xoNZTIHcCPdtceAVe4kC0L7aXSOPx88CssoI7o7RHEsYt2/A
mcR4R/PjjGVDv7c5PnQEEqmXSGDb84biuoI5CuFyxe2I9w==
-----END CERTIFICATE-----
-----BEGIN CERTIFICATE-----
MIICQTCCAaoCCQChB5BbB+wXojANBgkqhkiG9w0BAQUFADBlMQswCQYDVQQGEwJI
VTERMA8GA1UECBMIQnVkYXBlc3QxETAPBgNVBAcTCEJ1ZGFwZXN0MQwwCgYDVQQK
EwNDQTExDDAKBgNVBAsTA0NBMTEUMBIGA1UEAxMLd3d3LmNhMS5jb20wHhcNMTMw
NjEwMTMxMDI5WhcNMTYwMzA3MTMxMDI5WjBlMQswCQYDVQQGEwJIVTERMA8GA1UE
CBMIQnVkYXBlc3QxETAPBgNVBAcTCEJ1ZGFwZXN0MQwwCgYDVQQKEwNDQTExDDAK
BgNVBAsTA0NBMTEUMBIGA1UEAxMLd3d3LmNhMS5jb20wgZ8wDQYJKoZIhvcNAQEB
BQADgY0AMIGJAoGBAN2DiW5KJDjtTbvyv+r63gkOPzz0LpuiId8X0k1fROsWPeHv
leOyq/XuVcnfHNZnOHuYjxPjYdAEq4vQ+yOBB6d0kpTRDnw+XZXkU9dwZhPC+G92
E/6Ao+uRUU6mGj5LfNlSoGBYyKOBTPL4wWJTDwgKGNn57yTwh+vef2E0L4VTAgMB
AAEwDQYJKoZIhvcNAQEFBQADgYEAEIAWJBnubwFcywXc8FJx4WpsMEmMMs0s3Fe8
d+P0BhYZKSHxAu8hGr6+8aa5VsKgNvH3biALEcZMKMP/8AygDo1/lOsuzWHoliY7
7ymDUO2Mv0cWOxZk5O/wNI2opYRg8Nm+FXNrUyCXrFvXIJa0Nx+va0Ds1sdM8Wpu
RP/Na6M=
-----END CERTIFICATE-----
