Certificate:
    Data:
        Version: 3 (0x2)
        Serial Number: 4 (0x4)
        Signature Algorithm: md5WithRSAEncryption
        Issuer: C=HU, ST=Budapest, L=Budapest, O=CA1, OU=CA1, CN=www.ca1.com
        Validity
            Not Before: Jun 19 08:38:59 2013 GMT
            Not After : Mar 15 08:38:59 2016 GMT
        Subject: C=HU, ST=Budapest, O=STS, OU=STS, CN=www.sts.com
        Subject Public Key Info:
            Public Key Algorithm: rsaEncryption
                Public-Key: (2048 bit)
                Modulus:
                    00:b4:07:b1:65:55:41:c4:a8:7c:55:16:c6:20:7e:
                    36:0e:c1:b9:1f:c8:a8:e0:68:6b:5f:c3:65:ca:73:
                    c4:f2:b5:f1:07:5b:11:72:1a:af:9a:83:ea:45:bc:
                    0a:da:01:04:23:9f:68:26:61:e4:ad:be:76:ac:d9:
                    bf:95:2f:ad:b6:68:4d:7b:89:6b:4e:d8:45:1f:64:
                    56:ae:05:d3:f6:15:25:a6:f5:66:dd:e3:61:f4:06:
                    5a:1f:5c:d5:3b:35:80:23:5e:8e:5f:3a:78:0a:51:
                    eb:bd:94:b0:e3:5d:10:43:cc:7f:96:ab:72:cb:45:
                    65:da:cc:95:3a:71:ec:07:b7:ec:32:37:4b:09:19:
                    e6:fa:cd:fc:d2:28:42:97:34:aa:a9:10:ee:5a:ab:
                    a3:3e:42:d3:2b:cf:ed:1d:ca:c3:a7:1d:21:24:bd:
                    50:dd:2b:f2:cf:28:8e:7a:a0:fc:9d:86:5e:28:b7:
                    b9:e4:ac:19:c6:d8:6a:c5:1f:23:0d:5d:7d:08:e3:
                    be:5b:70:e0:cd:99:41:97:45:64:40:bc:58:c7:73:
                    4e:88:96:86:1f:26:19:8b:ab:11:f1:4c:e1:ed:9d:
                    ea:bf:b1:ae:40:d2:fe:a9:d4:12:96:5e:ee:91:08:
                    59:79:d1:bb:64:66:e9:45:f0:17:22:a5:6f:6c:9c:
                    38:3f
                Exponent: 65537 (0x10001)
    Signature Algorithm: md5WithRSAEncryption
        2a:7c:57:35:ac:87:4b:cb:d7:2b:a6:21:4b:e6:02:21:85:e2:
        6b:bd:99:b1:8d:36:d1:5a:74:ba:c0:a8:ca:38:f2:bb:c0:b6:
        c1:a7:d1:3d:82:36:10:8e:04:29:2d:4b:a2:f1:a7:40:3c:18:
        ee:f7:78:f2:dd:ad:dd:e8:19:8d:a6:30:4f:50:85:60:69:52:
        2d:34:a5:b9:b3:af:f9:cb:72:e1:73:17:b5:af:d1:bb:c7:a6:
        f3:8e:37:04:e5:1c:75:61:71:92:55:8b:24:72:5e:4b:ee:bd:
        8a:38:6d:3e:f2:e9:b2:11:2f:8a:2e:a1:13:96:33:ac:6a:95:
        84:9c
-----BEGIN CERTIFICATE-----
MIICrzCCAhigAwIBAgIBBDANBgkqhkiG9w0BAQQFADBlMQswCQYDVQQGEwJIVTER
MA8GA1UECBMIQnVkYXBlc3QxETAPBgNVBAcTCEJ1ZGFwZXN0MQwwCgYDVQQKEwND
QTExDDAKBgNVBAsTA0NBMTEUMBIGA1UEAxMLd3d3LmNhMS5jb20wHhcNMTMwNjE5
MDgzODU5WhcNMTYwMzE1MDgzODU5WjBSMQswCQYDVQQGEwJIVTERMA8GA1UECBMI
QnVkYXBlc3QxDDAKBgNVBAoTA1NUUzEMMAoGA1UECxMDU1RTMRQwEgYDVQQDEwt3
d3cuc3RzLmNvbTCCASIwDQYJKoZIhvcNAQEBBQADggEPADCCAQoCggEBALQHsWVV
QcSofFUWxiB+Ng7BuR/IqOBoa1/DZcpzxPK18QdbEXIar5qD6kW8CtoBBCOfaCZh
5K2+dqzZv5UvrbZoTXuJa07YRR9kVq4F0/YVJab1Zt3jYfQGWh9c1Ts1gCNejl86
eApR672UsONdEEPMf5arcstFZdrMlTpx7Ae37DI3SwkZ5vrN/NIoQpc0qqkQ7lqr
oz5C0yvP7R3Kw6cdISS9UN0r8s8ojnqg/J2GXii3ueSsGcbYasUfIw1dfQjjvltw
4M2ZQZdFZEC8WMdzToiWhh8mGYurEfFM4e2d6r+xrkDS/qnUEpZe7pEIWXnRu2Rm
6UXwFyKlb2ycOD8CAwEAATANBgkqhkiG9w0BAQQFAAOBgQAqfFc1rIdLy9crpiFL
5gIhheJrvZmxjTbRWnS6wKjKOPK7wLbBp9E9gjYQjgQpLUui8adAPBju93jy3a3d
6BmNpjBPUIVgaVItNKW5s6/5y3Lhcxe1r9G7x6bzjjcE5Rx1YXGSVYskcl5L7r2K
OG0+8umyES+KLqETljOsapWEnA==
-----END CERTIFICATE-----
