Certificate:
    Data:
        Version: 3 (0x2)
        Serial Number: 1 (0x1)
        Signature Algorithm: md5WithRSAEncryption
        Issuer: C=HU, ST=Budapest, L=Budapest, O=CA2, OU=CA2, CN=www.ca2.com
        Validity
            Not Before: Jun 10 14:48:44 2013 GMT
            Not After : Mar  6 14:48:44 2016 GMT
        Subject: C=HU, ST=Budapest, O=Client, OU=Client, CN=www.client.com
        Subject Public Key Info:
            Public Key Algorithm: dsaEncryption
                pub: 
                    00:b1:6d:f0:4a:d0:8a:71:f2:40:f0:38:bb:93:fc:
                    65:e5:0a:43:7a:88:51:67:05:c7:18:5f:e0:b5:f6:
                    dd:a9:95:7a:5b:8f:dd:90:5d:4b:d6:2e:de:93:a7:
                    e4:7d:ff:41:d3:21:94:05:ea:4b:7f:92:16:fb:d4:
                    a4:b5:e1:e6:f4:20:f0:10:23:dd:9a:b4:ee:c1:60:
                    53:4e:77:14:f6:39:44:e3:92:6d:d8:e0:da:78:7d:
                    10:54:d4:93:94:fb:1b:01:eb:56:84:0d:51:c2:8d:
                    8f:07:05:db:fe:be:d1:31:a7:b4:43:fa:cf:0a:53:
                    cf:ab:e2:03:33:77:61:49:8c
                P:   
                    00:fd:7f:53:81:1d:75:12:29:52:df:4a:9c:2e:ec:
                    e4:e7:f6:11:b7:52:3c:ef:44:00:c3:1e:3f:80:b6:
                    51:26:69:45:5d:40:22:51:fb:59:3d:8d:58:fa:bf:
                    c5:f5:ba:30:f6:cb:9b:55:6c:d7:81:3b:80:1d:34:
                    6f:f2:66:60:b7:6b:99:50:a5:a4:9f:9f:e8:04:7b:
                    10:22:c2:4f:bb:a9:d7:fe:b7:c6:1b:f8:3b:57:e7:
                    c6:a8:a6:15:0f:04:fb:83:f6:d3:c5:1e:c3:02:35:
                    54:13:5a:16:91:32:f6:75:f3:ae:2b:61:d7:2a:ef:
                    f2:22:03:19:9d:d1:48:01:c7
                Q:   
                    00:97:60:50:8f:15:23:0b:cc:b2:92:b9:82:a2:eb:
                    84:0b:f0:58:1c:f5
                G:   
                    00:f7:e1:a0:85:d6:9b:3d:de:cb:bc:ab:5c:36:b8:
                    57:b9:79:94:af:bb:fa:3a:ea:82:f9:57:4c:0b:3d:
                    07:82:67:51:59:57:8e:ba:d4:59:4f:e6:71:07:10:
                    81:80:b4:49:16:71:23:e8:4c:28:16:13:b7:cf:09:
                    32:8c:c8:a6:e1:3c:16:7a:8b:54:7c:8d:28:e0:a3:
                    ae:1e:2b:b3:a6:75:91:6e:a3:7f:0b:fa:21:35:62:
                    f1:fb:62:7a:01:24:3b:cc:a4:f1:be:a8:51:90:89:
                    a8:83:df:e1:5a:e5:9f:06:92:8b:66:5e:80:7b:55:
                    25:64:01:4c:3b:fe:cf:49:2a
    Signature Algorithm: md5WithRSAEncryption
        b0:1c:e8:14:2d:80:47:5b:c4:92:19:83:98:c1:90:f0:c0:7e:
        44:18:30:45:af:7c:8b:c4:fa:27:cb:b9:5f:fb:b3:9a:2b:02:
        b1:54:20:66:a0:35:e9:99:72:cf:5f:ab:43:e1:72:0d:30:d4:
        0b:ce:fc:3b:66:82:ec:a3:be:0f:ba:fa:82:78:fc:f2:4d:4e:
        85:34:1a:78:54:46:71:44:18:6a:59:11:47:8c:cf:3b:27:d9:
        b9:65:d0:b5:8d:5d:ec:8e:85:eb:29:03:e9:ac:13:f3:c2:db:
        09:ce:c8:f6:d6:84:4f:76:97:6b:e5:6c:40:31:84:c8:a3:a0:
        20:8a
-----BEGIN CERTIFICATE-----
MIIDTjCCAregAwIBAgIBATANBgkqhkiG9w0BAQQFADBlMQswCQYDVQQGEwJIVTER
MA8GA1UECBMIQnVkYXBlc3QxETAPBgNVBAcTCEJ1ZGFwZXN0MQwwCgYDVQQKEwND
QTIxDDAKBgNVBAsTA0NBMjEUMBIGA1UEAxMLd3d3LmNhMi5jb20wHhcNMTMwNjEw
MTQ0ODQ0WhcNMTYwMzA2MTQ0ODQ0WjBbMQswCQYDVQQGEwJIVTERMA8GA1UECBMI
QnVkYXBlc3QxDzANBgNVBAoTBkNsaWVudDEPMA0GA1UECxMGQ2xpZW50MRcwFQYD
VQQDEw53d3cuY2xpZW50LmNvbTCCAbgwggEsBgcqhkjOOAQBMIIBHwKBgQD9f1OB
HXUSKVLfSpwu7OTn9hG3UjzvRADDHj+AtlEmaUVdQCJR+1k9jVj6v8X1ujD2y5tV
bNeBO4AdNG/yZmC3a5lQpaSfn+gEexAiwk+7qdf+t8Yb+DtX58aophUPBPuD9tPF
HsMCNVQTWhaRMvZ1864rYdcq7/IiAxmd0UgBxwIVAJdgUI8VIwvMspK5gqLrhAvw
WBz1AoGBAPfhoIXWmz3ey7yrXDa4V7l5lK+7+jrqgvlXTAs9B4JnUVlXjrrUWU/m
cQcQgYC0SRZxI+hMKBYTt88JMozIpuE8FnqLVHyNKOCjrh4rs6Z1kW6jfwv6ITVi
8ftiegEkO8yk8b6oUZCJqIPf4VrlnwaSi2ZegHtVJWQBTDv+z0kqA4GFAAKBgQCx
bfBK0Ipx8kDwOLuT/GXlCkN6iFFnBccYX+C19t2plXpbj92QXUvWLt6Tp+R9/0HT
IZQF6kt/khb71KS14eb0IPAQI92atO7BYFNOdxT2OUTjkm3Y4Np4fRBU1JOU+xsB
61aEDVHCjY8HBdv+vtExp7RD+s8KU8+r4gMzd2FJjDANBgkqhkiG9w0BAQQFAAOB
gQCwHOgULYBHW8SSGYOYwZDwwH5EGDBFr3yLxPony7lf+7OaKwKxVCBmoDXpmXLP
X6tD4XINMNQLzvw7ZoLso74PuvqCePzyTU6FNBp4VEZxRBhqWRFHjM87J9m5ZdC1
jV3sjoXrKQPprBPzwtsJzsj21oRPdpdr5WxAMYTIo6Agig==
-----END CERTIFICATE-----
-----BEGIN CERTIFICATE-----
MIICQTCCAaoCCQCPRfMdpuo5ZTANBgkqhkiG9w0BAQUFADBlMQswCQYDVQQGEwJI
VTERMA8GA1UECBMIQnVkYXBlc3QxETAPBgNVBAcTCEJ1ZGFwZXN0MQwwCgYDVQQK
EwNDQTIxDDAKBgNVBAsTA0NBMjEUMBIGA1UEAxMLd3d3LmNhMi5jb20wHhcNMTMw
NjEwMTQ0NTIxWhcNMTYwMzA3MTQ0NTIxWjBlMQswCQYDVQQGEwJIVTERMA8GA1UE
CBMIQnVkYXBlc3QxETAPBgNVBAcTCEJ1ZGFwZXN0MQwwCgYDVQQKEwNDQTIxDDAK
BgNVBAsTA0NBMjEUMBIGA1UEAxMLd3d3LmNhMi5jb20wgZ8wDQYJKoZIhvcNAQEB
BQADgY0AMIGJAoGBALPk/H2Ze+mKs28myJpOg2NU7SZj67QeElXfLvByMHtF1akh
d4bZO5N5Go36zxiqgiCBPQrdbBd3DhQd6ICyzabet9lp4Q1aEpMXP0mwGHf+1AjG
x6ksbnbslJ7Ria4rmEFiKI5tGBRvQxGZxR5PdKb17bpObCeu5FU9e13HIX/RAgMB
AAEwDQYJKoZIhvcNAQEFBQADgYEAo/jis0OU3phRQSajnZNwIk4EGfNrS0JYIu85
H1gPiCnMVrzDou33sGGZS0FUT8Et3BgbxRMNkQR92v69wUM4/wYFNlhD5xXKFcaF
VpdQPQu638d2UzqSdiWKQibQQQXV+sf5xzLeiV9fXFyhWmmh+3WBsOB80NlQelh+
cy94FH4=
-----END CERTIFICATE-----
