Certificate:
    Data:
        Version: 3 (0x2)
        Serial Number: 1 (0x1)
        Signature Algorithm: md5WithRSAEncryption
        Issuer: C=HU, ST=Budapest, L=Budapest, O=CA2, OU=CA2, CN=www.ca2.com
        Validity
            Not Before: Jun 13 13:44:03 2013 GMT
            Not After : Mar  9 13:44:03 2016 GMT
        Subject: C=HU, ST=Budapest, O=Client, OU=Client, CN=www.client.com
        Subject Public Key Info:
            Public Key Algorithm: rsaEncryption
                Public-Key: (2048 bit)
                Modulus:
                    00:96:be:05:bd:2c:33:23:8c:d1:07:fc:63:28:43:
                    28:4b:dc:97:fd:de:7c:53:75:7e:ca:4f:4f:6d:10:
                    75:b5:2a:b6:c3:42:e5:e6:53:eb:8e:5a:f7:66:59:
                    76:55:af:30:8c:f3:62:c5:92:15:77:7b:b9:a1:27:
                    a7:cc:21:cb:3c:a8:13:08:54:cd:0b:ec:c4:d9:3c:
                    35:9f:f6:83:db:2c:0e:b0:c5:4d:f6:92:7c:a8:74:
                    61:45:78:14:64:0f:05:ed:6a:29:9f:25:df:87:e2:
                    3e:94:ce:48:29:0d:3d:02:9d:1d:bf:46:f2:49:e2:
                    86:67:ed:1a:76:00:80:51:1b:7f:ce:34:51:72:40:
                    d6:db:48:00:79:4b:63:49:a8:5b:b2:ca:36:27:02:
                    b9:2e:9f:81:a1:0d:52:6f:16:f5:59:68:6a:4d:a1:
                    38:6a:d1:01:1b:60:11:d9:9d:7b:e2:b5:b8:4a:1c:
                    88:6b:18:0f:6d:09:60:70:74:a2:de:44:e8:b5:4e:
                    1a:27:00:0f:64:c1:59:f3:85:b2:c9:33:8f:db:c7:
                    28:42:87:7c:71:b6:3b:20:bc:a4:e0:c6:0c:9e:de:
                    c5:be:44:8d:fa:2d:8e:c6:6b:5b:f0:f5:15:39:96:
                    ab:32:9c:f5:2f:49:99:74:9e:53:6f:9b:88:f0:a6:
                    24:6d
                Exponent: 65537 (0x10001)
    Signature Algorithm: md5WithRSAEncryption
        a7:29:1a:c5:75:45:d0:ae:aa:73:02:e1:e2:00:fd:aa:a7:4c:
        ff:c8:bf:da:0e:8a:eb:22:35:4d:d6:2b:56:1c:2f:dd:fb:56:
        2c:94:49:82:0f:c0:4f:d4:81:17:68:a2:27:b6:80:f4:91:e0:
        89:99:ad:30:73:0a:93:a1:2f:4a:cc:9f:e7:27:2d:6d:2e:9d:
        bf:94:1a:f6:6f:4c:fd:fc:8f:76:1b:84:e0:34:67:fa:a8:d5:
        9a:f3:f5:50:b8:b1:c0:05:27:be:17:d9:52:3b:8b:6c:47:7d:
        47:ed:69:61:e2:4a:36:60:3f:14:f7:20:d9:d1:7c:29:7b:93:
        24:62
-----BEGIN CERTIFICATE-----
MIICuDCCAiGgAwIBAgIBATANBgkqhkiG9w0BAQQFADBlMQswCQYDVQQGEwJIVTER
MA8GA1UECBMIQnVkYXBlc3QxETAPBgNVBAcTCEJ1ZGFwZXN0MQwwCgYDVQQKEwND
QTIxDDAKBgNVBAsTA0NBMjEUMBIGA1UEAxMLd3d3LmNhMi5jb20wHhcNMTMwNjEz
MTM0NDAzWhcNMTYwMzA5MTM0NDAzWjBbMQswCQYDVQQGEwJIVTERMA8GA1UECBMI
QnVkYXBlc3QxDzANBgNVBAoTBkNsaWVudDEPMA0GA1UECxMGQ2xpZW50MRcwFQYD
VQQDEw53d3cuY2xpZW50LmNvbTCCASIwDQYJKoZIhvcNAQEBBQADggEPADCCAQoC
ggEBAJa+Bb0sMyOM0Qf8YyhDKEvcl/3efFN1fspPT20QdbUqtsNC5eZT645a92ZZ
dlWvMIzzYsWSFXd7uaEnp8whyzyoEwhUzQvsxNk8NZ/2g9ssDrDFTfaSfKh0YUV4
FGQPBe1qKZ8l34fiPpTOSCkNPQKdHb9G8knihmftGnYAgFEbf840UXJA1ttIAHlL
Y0moW7LKNicCuS6fgaENUm8W9Vloak2hOGrRARtgEdmde+K1uEociGsYD20JYHB0
ot5E6LVOGicAD2TBWfOFsskzj9vHKEKHfHG2OyC8pODGDJ7exb5EjfotjsZrW/D1
FTmWqzKc9S9JmXSeU2+biPCmJG0CAwEAATANBgkqhkiG9w0BAQQFAAOBgQCnKRrF
dUXQrqpzAuHiAP2qp0z/yL/aDorrIjVN1itWHC/d+1YslEmCD8BP1IEXaKIntoD0
keCJma0wcwqToS9KzJ/nJy1tLp2/lBr2b0z9/I92G4TgNGf6qNWa8/VQuLHABSe+
F9lSO4tsR31H7Wlh4ko2YD8U9yDZ0Xwpe5MkYg==
-----END CERTIFICATE-----
