Certificate:
    Data:
        Version: 3 (0x2)
        Serial Number: 1 (0x1)
        Signature Algorithm: md5WithRSAEncryption
        Issuer: C=HU, ST=Budapest, L=Budapest, O=CA2, OU=CA2, CN=www.ca2.com
        Validity
            Not Before: Jun 16 21:22:59 2013 GMT
            Not After : Mar 12 21:22:59 2016 GMT
        Subject: C=HU, ST=Budapest, O=Client, OU=Client, CN=www.client.com
        Subject Public Key Info:
            Public Key Algorithm: rsaEncryption
                Public-Key: (2048 bit)
                Modulus:
                    00:bc:b0:3f:6c:79:37:2d:5f:9f:66:55:5c:18:0e:
                    d4:91:3c:e8:d1:f4:d8:90:16:7c:ff:b6:62:1d:73:
                    2f:a3:54:70:a0:2a:b5:5c:11:7c:a0:e0:b0:95:fe:
                    37:c8:20:b4:3d:6e:6e:d6:63:31:a9:80:c0:06:1a:
                    61:19:0b:85:0d:08:6d:3c:fa:a3:4f:49:ef:19:9a:
                    fa:56:de:88:58:cf:3a:4a:04:31:55:bf:4f:1f:30:
                    1c:32:0f:12:5d:ca:19:62:45:a1:53:95:80:eb:af:
                    d2:d4:99:b2:4d:f3:ee:b3:a2:ad:52:87:5c:19:21:
                    8b:e1:a3:f2:1f:c7:d0:67:43:3b:30:80:d6:51:c4:
                    f0:9e:03:50:b8:15:0d:26:07:d8:5f:d6:85:dc:61:
                    25:f9:e7:2f:40:b2:4f:1f:1a:f4:a4:fb:81:59:a3:
                    cd:e3:a7:6f:e4:8f:35:07:42:74:89:b3:c2:7d:be:
                    6c:74:07:d0:a0:60:3e:65:fd:7c:8b:8a:f4:96:9b:
                    f6:57:17:eb:9d:db:0a:f1:40:36:2d:22:3e:5f:da:
                    43:f2:07:4e:16:6e:db:b1:3d:fd:01:e0:dd:05:96:
                    d5:6f:8f:6d:f8:8b:de:04:67:61:ac:9f:0a:39:0b:
                    1b:ad:3a:53:d4:66:13:0c:4d:54:70:7e:e2:38:a4:
                    8b:a7
                Exponent: 65537 (0x10001)
    Signature Algorithm: md5WithRSAEncryption
        ac:c0:0c:c1:f5:08:86:42:8e:de:6b:8c:32:d2:60:0f:ee:8a:
        de:d9:2a:e0:8d:28:9a:cb:85:05:4b:31:69:8c:a8:43:21:6a:
        fe:df:6a:c5:22:33:be:44:ef:d4:c1:ff:5c:7c:ec:d3:42:3b:
        2b:2d:04:55:16:ce:e5:57:2e:f8:78:8e:5c:f5:2c:73:6d:95:
        8d:0a:0c:64:39:9e:39:90:0c:68:50:bb:31:b3:c7:34:6c:71:
        33:d7:4a:13:cf:04:8f:b9:73:03:f1:1d:cf:55:6e:bf:82:b0:
        09:b6:97:ce:7d:09:35:5f:3a:11:11:02:03:fe:5c:57:61:2d:
        84:2c
-----BEGIN CERTIFICATE-----
MIICuDCCAiGgAwIBAgIBATANBgkqhkiG9w0BAQQFADBlMQswCQYDVQQGEwJIVTER
MA8GA1UECBMIQnVkYXBlc3QxETAPBgNVBAcTCEJ1ZGFwZXN0MQwwCgYDVQQKEwND
QTIxDDAKBgNVBAsTA0NBMjEUMBIGA1UEAxMLd3d3LmNhMi5jb20wHhcNMTMwNjE2
MjEyMjU5WhcNMTYwMzEyMjEyMjU5WjBbMQswCQYDVQQGEwJIVTERMA8GA1UECBMI
QnVkYXBlc3QxDzANBgNVBAoTBkNsaWVudDEPMA0GA1UECxMGQ2xpZW50MRcwFQYD
VQQDEw53d3cuY2xpZW50LmNvbTCCASIwDQYJKoZIhvcNAQEBBQADggEPADCCAQoC
ggEBALywP2x5Ny1fn2ZVXBgO1JE86NH02JAWfP+2Yh1zL6NUcKAqtVwRfKDgsJX+
N8ggtD1ubtZjMamAwAYaYRkLhQ0IbTz6o09J7xma+lbeiFjPOkoEMVW/Tx8wHDIP
El3KGWJFoVOVgOuv0tSZsk3z7rOirVKHXBkhi+Gj8h/H0GdDOzCA1lHE8J4DULgV
DSYH2F/WhdxhJfnnL0CyTx8a9KT7gVmjzeOnb+SPNQdCdImzwn2+bHQH0KBgPmX9
fIuK9Jab9lcX653bCvFANi0iPl/aQ/IHThZu27E9/QHg3QWW1W+PbfiL3gRnYayf
CjkLG606U9RmEwxNVHB+4jiki6cCAwEAATANBgkqhkiG9w0BAQQFAAOBgQCswAzB
9QiGQo7ea4wy0mAP7ore2SrgjSiay4UFSzFpjKhDIWr+32rFIjO+RO/Uwf9cfOzT
QjsrLQRVFs7lVy74eI5c9SxzbZWNCgxkOZ45kAxoULsxs8c0bHEz10oTzwSPuXMD
8R3PVW6/grAJtpfOfQk1XzoREQID/lxXYS2ELA==
-----END CERTIFICATE-----
-----BEGIN CERTIFICATE-----
MIICQTCCAaoCCQCPRfMdpuo5ZTANBgkqhkiG9w0BAQUFADBlMQswCQYDVQQGEwJI
VTERMA8GA1UECBMIQnVkYXBlc3QxETAPBgNVBAcTCEJ1ZGFwZXN0MQwwCgYDVQQK
EwNDQTIxDDAKBgNVBAsTA0NBMjEUMBIGA1UEAxMLd3d3LmNhMi5jb20wHhcNMTMw
NjEwMTQ0NTIxWhcNMTYwMzA3MTQ0NTIxWjBlMQswCQYDVQQGEwJIVTERMA8GA1UE
CBMIQnVkYXBlc3QxETAPBgNVBAcTCEJ1ZGFwZXN0MQwwCgYDVQQKEwNDQTIxDDAK
BgNVBAsTA0NBMjEUMBIGA1UEAxMLd3d3LmNhMi5jb20wgZ8wDQYJKoZIhvcNAQEB
BQADgY0AMIGJAoGBALPk/H2Ze+mKs28myJpOg2NU7SZj67QeElXfLvByMHtF1akh
d4bZO5N5Go36zxiqgiCBPQrdbBd3DhQd6ICyzabet9lp4Q1aEpMXP0mwGHf+1AjG
x6ksbnbslJ7Ria4rmEFiKI5tGBRvQxGZxR5PdKb17bpObCeu5FU9e13HIX/RAgMB
AAEwDQYJKoZIhvcNAQEFBQADgYEAo/jis0OU3phRQSajnZNwIk4EGfNrS0JYIu85
H1gPiCnMVrzDou33sGGZS0FUT8Et3BgbxRMNkQR92v69wUM4/wYFNlhD5xXKFcaF
VpdQPQu638d2UzqSdiWKQibQQQXV+sf5xzLeiV9fXFyhWmmh+3WBsOB80NlQelh+
cy94FH4=
-----END CERTIFICATE-----
