Certificate:
    Data:
        Version: 3 (0x2)
        Serial Number: 1 (0x1)
        Signature Algorithm: md5WithRSAEncryption
        Issuer: C=HU, ST=Budapest, L=Budapest, O=CA1, OU=CA1, CN=www.ca1.com
        Validity
            Not Before: Jun 10 13:44:40 2013 GMT
            Not After : Mar  6 13:44:40 2016 GMT
        Subject: C=HU, ST=Budapest, O=STS, OU=STS, CN=www.sts.com
        Subject Public Key Info:
            Public Key Algorithm: dsaEncryption
                pub: 
                    00:95:4c:5f:f3:4b:a4:e1:33:91:9a:66:e7:07:21:
                    23:a2:de:26:20:42:8f:39:2d:bc:d3:cb:f7:08:67:
                    8c:07:52:a0:46:d3:69:49:de:40:a0:40:1c:d4:51:
                    1e:ef:33:61:f3:cd:03:52:58:15:8a:4e:33:2e:ff:
                    26:73:7f:38:ff:a6:d9:8b:b6:70:a5:b6:a2:0b:ce:
                    1b:1f:6b:01:b9:ed:2b:38:7e:3e:60:50:df:81:7f:
                    b6:ce:4c:9a:5e:b3:8b:6f:30:f4:b5:93:52:6e:7d:
                    4b:2c:c7:36:92:33:94:6e:ac:81:3b:6a:cd:85:bf:
                    e7:25:38:7f:8b:c8:4a:a7:2a
                P:   
                    00:fd:7f:53:81:1d:75:12:29:52:df:4a:9c:2e:ec:
                    e4:e7:f6:11:b7:52:3c:ef:44:00:c3:1e:3f:80:b6:
                    51:26:69:45:5d:40:22:51:fb:59:3d:8d:58:fa:bf:
                    c5:f5:ba:30:f6:cb:9b:55:6c:d7:81:3b:80:1d:34:
                    6f:f2:66:60:b7:6b:99:50:a5:a4:9f:9f:e8:04:7b:
                    10:22:c2:4f:bb:a9:d7:fe:b7:c6:1b:f8:3b:57:e7:
                    c6:a8:a6:15:0f:04:fb:83:f6:d3:c5:1e:c3:02:35:
                    54:13:5a:16:91:32:f6:75:f3:ae:2b:61:d7:2a:ef:
                    f2:22:03:19:9d:d1:48:01:c7
                Q:   
                    00:97:60:50:8f:15:23:0b:cc:b2:92:b9:82:a2:eb:
                    84:0b:f0:58:1c:f5
                G:   
                    00:f7:e1:a0:85:d6:9b:3d:de:cb:bc:ab:5c:36:b8:
                    57:b9:79:94:af:bb:fa:3a:ea:82:f9:57:4c:0b:3d:
                    07:82:67:51:59:57:8e:ba:d4:59:4f:e6:71:07:10:
                    81:80:b4:49:16:71:23:e8:4c:28:16:13:b7:cf:09:
                    32:8c:c8:a6:e1:3c:16:7a:8b:54:7c:8d:28:e0:a3:
                    ae:1e:2b:b3:a6:75:91:6e:a3:7f:0b:fa:21:35:62:
                    f1:fb:62:7a:01:24:3b:cc:a4:f1:be:a8:51:90:89:
                    a8:83:df:e1:5a:e5:9f:06:92:8b:66:5e:80:7b:55:
                    25:64:01:4c:3b:fe:cf:49:2a
    Signature Algorithm: md5WithRSAEncryption
        23:e5:e8:1e:2c:c4:c0:bb:54:d9:a6:6f:a2:a5:90:94:63:e3:
        8b:70:95:7e:34:c1:c4:b7:9f:f4:70:c2:3a:3a:e6:fa:c6:09:
        a0:39:de:9e:35:35:14:46:ea:1b:7e:db:d2:38:e0:c3:d3:2a:
        68:af:d5:6c:04:bd:d3:d2:14:3c:03:56:5e:fa:44:39:00:c2:
        f0:1e:01:3b:87:86:f3:31:ee:7f:28:dd:55:35:94:47:9f:2e:
        4c:68:36:f3:e0:89:e4:fd:b8:02:5e:c6:61:01:a7:1d:8f:29:
        ea:b5:16:c1:76:46:d9:da:33:d4:7e:b1:9e:bd:5f:ac:73:64:
        12:f1
-----BEGIN CERTIFICATE-----
MIIDRTCCAq6gAwIBAgIBATANBgkqhkiG9w0BAQQFADBlMQswCQYDVQQGEwJIVTER
MA8GA1UECBMIQnVkYXBlc3QxETAPBgNVBAcTCEJ1ZGFwZXN0MQwwCgYDVQQKEwND
QTExDDAKBgNVBAsTA0NBMTEUMBIGA1UEAxMLd3d3LmNhMS5jb20wHhcNMTMwNjEw
MTM0NDQwWhcNMTYwMzA2MTM0NDQwWjBSMQswCQYDVQQGEwJIVTERMA8GA1UECBMI
QnVkYXBlc3QxDDAKBgNVBAoTA1NUUzEMMAoGA1UECxMDU1RTMRQwEgYDVQQDEwt3
d3cuc3RzLmNvbTCCAbgwggEsBgcqhkjOOAQBMIIBHwKBgQD9f1OBHXUSKVLfSpwu
7OTn9hG3UjzvRADDHj+AtlEmaUVdQCJR+1k9jVj6v8X1ujD2y5tVbNeBO4AdNG/y
ZmC3a5lQpaSfn+gEexAiwk+7qdf+t8Yb+DtX58aophUPBPuD9tPFHsMCNVQTWhaR
MvZ1864rYdcq7/IiAxmd0UgBxwIVAJdgUI8VIwvMspK5gqLrhAvwWBz1AoGBAPfh
oIXWmz3ey7yrXDa4V7l5lK+7+jrqgvlXTAs9B4JnUVlXjrrUWU/mcQcQgYC0SRZx
I+hMKBYTt88JMozIpuE8FnqLVHyNKOCjrh4rs6Z1kW6jfwv6ITVi8ftiegEkO8yk
8b6oUZCJqIPf4VrlnwaSi2ZegHtVJWQBTDv+z0kqA4GFAAKBgQCVTF/zS6ThM5Ga
ZucHISOi3iYgQo85LbzTy/cIZ4wHUqBG02lJ3kCgQBzUUR7vM2HzzQNSWBWKTjMu
/yZzfzj/ptmLtnCltqILzhsfawG57Ss4fj5gUN+Bf7bOTJpes4tvMPS1k1JufUss
xzaSM5RurIE7as2Fv+clOH+LyEqnKjANBgkqhkiG9w0BAQQFAAOBgQAj5egeLMTA
u1TZpm+ipZCUY+OLcJV+NMHEt5/0cMI6Oub6xgmgOd6eNTUURuobftvSOODD0ypo
r9VsBL3T0hQ8A1Ze+kQ5AMLwHgE7h4bzMe5/KN1VNZRHny5MaDbz4Ink/bgCXsZh
AacdjynqtRbBdkbZ2jPUfrGevV+sc2QS8Q==
-----END CERTIFICATE-----
-----BEGIN CERTIFICATE-----
MIICQTCCAaoCCQChB5BbB+wXojANBgkqhkiG9w0BAQUFADBlMQswCQYDVQQGEwJI
VTERMA8GA1UECBMIQnVkYXBlc3QxETAPBgNVBAcTCEJ1ZGFwZXN0MQwwCgYDVQQK
EwNDQTExDDAKBgNVBAsTA0NBMTEUMBIGA1UEAxMLd3d3LmNhMS5jb20wHhcNMTMw
NjEwMTMxMDI5WhcNMTYwMzA3MTMxMDI5WjBlMQswCQYDVQQGEwJIVTERMA8GA1UE
CBMIQnVkYXBlc3QxETAPBgNVBAcTCEJ1ZGFwZXN0MQwwCgYDVQQKEwNDQTExDDAK
BgNVBAsTA0NBMTEUMBIGA1UEAxMLd3d3LmNhMS5jb20wgZ8wDQYJKoZIhvcNAQEB
BQADgY0AMIGJAoGBAN2DiW5KJDjtTbvyv+r63gkOPzz0LpuiId8X0k1fROsWPeHv
leOyq/XuVcnfHNZnOHuYjxPjYdAEq4vQ+yOBB6d0kpTRDnw+XZXkU9dwZhPC+G92
E/6Ao+uRUU6mGj5LfNlSoGBYyKOBTPL4wWJTDwgKGNn57yTwh+vef2E0L4VTAgMB
AAEwDQYJKoZIhvcNAQEFBQADgYEAEIAWJBnubwFcywXc8FJx4WpsMEmMMs0s3Fe8
d+P0BhYZKSHxAu8hGr6+8aa5VsKgNvH3biALEcZMKMP/8AygDo1/lOsuzWHoliY7
7ymDUO2Mv0cWOxZk5O/wNI2opYRg8Nm+FXNrUyCXrFvXIJa0Nx+va0Ds1sdM8Wpu
RP/Na6M=
-----END CERTIFICATE-----
